; Function Attrs: mustprogress nounwind uwtable
define dso_local noundef zeroext i1 @_ZN4llvm3sys4path21user_config_directoryERNS_15SmallVectorImplIcEE(ptr noundef nonnull align 8 dereferenceable(24) %0) local_unnamed_addr #0 {
  %2 = alloca %"class.llvm::Twine", align 8
  %3 = alloca %"class.llvm::Twine", align 8
  %4 = alloca %"class.llvm::Twine", align 8
  %5 = alloca %"class.llvm::Twine", align 8
  %6 = tail call ptr @getenv(ptr noundef nonnull @.str.12) #30
  %.not = icmp eq ptr %6, null
  br i1 %.not, label %12, label %7

7:                                                ; preds = %1
  %8 = tail call noundef i64 @_ZNK4llvm15SmallVectorBaseImE4sizeEv(ptr noundef nonnull align 8 dereferenceable(24) %0) #30
  %9 = getelementptr inbounds nuw i8, ptr %0, i64 8
  store i64 0, ptr %9, align 8
  %10 = tail call i64 @strlen(ptr noundef nonnull dereferenceable(1) %6) #29
  %11 = getelementptr inbounds i8, ptr %6, i64 %10
  tail call void @_ZN4llvm15SmallVectorImplIcE6appendIPKcvEEvT_S5_(ptr noundef nonnull align 8 dereferenceable(24) %0, ptr noundef nonnull %6, ptr noundef nonnull %11)
  br label %20

12:                                               ; preds = %1
  %13 = tail call noundef zeroext i1 @_ZN4llvm3sys4path14home_directoryERNS_15SmallVectorImplIcEE(ptr noundef nonnull align 8 dereferenceable(24) %0)
  br i1 %13, label %14, label %20

14:                                               ; preds = %12
  %15 = getelementptr inbounds nuw i8, ptr %2, i64 32
  %16 = getelementptr inbounds nuw i8, ptr %2, i64 33
  store i8 1, ptr %16, align 1
  store ptr @.str.13, ptr %2, align 8
  store i8 3, ptr %15, align 8
  %17 = getelementptr inbounds nuw i8, ptr %3, i64 32
  %18 = getelementptr inbounds nuw i8, ptr %4, i64 32
  store i16 257, ptr %17, align 8
  %19 = getelementptr inbounds nuw i8, ptr %5, i64 32
  store i16 257, ptr %18, align 8
  store i16 257, ptr %19, align 8
  call void @_ZN4llvm3sys4path6appendERNS_15SmallVectorImplIcEENS1_5StyleERKNS_5TwineES8_S8_S8_(ptr noundef nonnull align 8 dereferenceable(24) %0, i32 noundef 0, ptr noundef nonnull align 8 dereferenceable(34) %2, ptr noundef nonnull align 8 dereferenceable(34) %3, ptr noundef nonnull align 8 dereferenceable(34) %4, ptr noundef nonnull align 8 dereferenceable(34) %5)
  br label %20

20:                                               ; preds = %12, %14, %7
  %.0 = phi i1 [ true, %7 ], [ true, %14 ], [ false, %12 ]
  ret i1 %.0
}